target datalayout = "e-m:e-p270:32:32-p271:32:32-p272:64:64-i64:64-i128:128-f80:128-n8:16:32:64-S128"
target triple = "x86_64-pc-linux-gnu"

@.str.39 = private unnamed_addr constant [3 x i8] c"53\00", align 1
@.str.59 = private unnamed_addr constant [20 x i8] c"Invalid port given.\00", align 1

; Function Attrs: null_pointer_is_valid sspstrong uwtable
define internal zeroext i1 @dnsserver_uat_fld_port_chk_cb(ptr noundef %0, ptr noundef %1, i32 noundef %2, ptr noundef %3, ptr noundef %4, ptr noundef %5) #3 {
  %7 = alloca i1, align 1
  %8 = alloca ptr, align 8
  %9 = alloca ptr, align 8
  %10 = alloca i32, align 4
  %11 = alloca ptr, align 8
  %12 = alloca ptr, align 8
  %13 = alloca ptr, align 8
  %14 = alloca i16, align 2
  %15 = alloca i32, align 4
  store ptr %0, ptr %8, align 8
  store ptr %1, ptr %9, align 8
  store i32 %2, ptr %10, align 4
  store ptr %3, ptr %11, align 8
  store ptr %4, ptr %12, align 8
  store ptr %5, ptr %13, align 8
  %16 = load ptr, ptr %9, align 8
  %17 = icmp ne ptr %16, null
  br i1 %17, label %18, label %22

18:                                               ; preds = %6
  %19 = load ptr, ptr %9, align 8
  %20 = call i64 @strlen(ptr noundef %19) #17
  %21 = icmp eq i64 %20, 0
  br i1 %21, label %22, label %24

22:                                               ; preds = %18, %6
  %23 = load ptr, ptr %13, align 8
  store ptr null, ptr %23, align 8
  store i1 true, ptr %7, align 1
  br label %40

24:                                               ; preds = %18
  %25 = load ptr, ptr %9, align 8
  %26 = call i32 @strcmp(ptr noundef %25, ptr noundef @.str.39) #17
  %27 = icmp ne i32 %26, 0
  br i1 %27, label %28, label %38

28:                                               ; preds = %24
  call void @llvm.lifetime.start.p0(i64 2, ptr %14) #16
  %29 = load ptr, ptr %9, align 8
  %30 = call zeroext i1 @ws_strtou16(ptr noundef %29, ptr noundef null, ptr noundef %14)
  br i1 %30, label %34, label %31

31:                                               ; preds = %28
  %32 = call noalias ptr @g_strdup(ptr noundef @.str.59)
  %33 = load ptr, ptr %13, align 8
  store ptr %32, ptr %33, align 8
  store i1 false, ptr %7, align 1
  store i32 1, ptr %15, align 4
  br label %35

34:                                               ; preds = %28
  store i32 0, ptr %15, align 4
  br label %35

35:                                               ; preds = %34, %31
  call void @llvm.lifetime.end.p0(i64 2, ptr %14) #16
  %36 = load i32, ptr %15, align 4
  switch i32 %36, label %42 [
    i32 0, label %37
    i32 1, label %40
  ]

37:                                               ; preds = %35
  br label %38

38:                                               ; preds = %37, %24
  %39 = load ptr, ptr %13, align 8
  store ptr null, ptr %39, align 8
  store i1 true, ptr %7, align 1
  br label %40

40:                                               ; preds = %38, %35, %22
  %41 = load i1, ptr %7, align 1
  ret i1 %41

42:                                               ; preds = %35
  unreachable
}