; Function Attrs: null_pointer_is_valid sspstrong uwtable
define internal noundef zeroext i1 @dnsserver_uat_fld_port_chk_cb(ptr readnone captures(none) %0, ptr noundef %1, i32 %2, ptr readnone captures(none) %3, ptr readnone captures(none) %4, ptr noundef writeonly captures(none) initializes((0, 8)) %5) #3 {
  %7 = alloca i16, align 2
  %.not = icmp eq ptr %1, null
  br i1 %.not, label %9, label %8

8:                                                ; preds = %6
  %char0 = load i8, ptr %1, align 1
  switch i8 %char0, label %.tail.thread [
    i8 0, label %9
    i8 53, label %sub_1
  ]

9:                                                ; preds = %8, %6
  store ptr null, ptr %5, align 8
  br label %19

sub_1:                                            ; preds = %8
  %10 = getelementptr inbounds nuw i8, ptr %1, i64 1
  %11 = load i8, ptr %10, align 1
  %.not13 = icmp eq i8 %11, 51
  br i1 %.not13, label %.tail, label %.tail.thread

.tail:                                            ; preds = %sub_1
  %12 = getelementptr inbounds nuw i8, ptr %1, i64 2
  %13 = load i8, ptr %12, align 1
  %14 = icmp eq i8 %13, 0
  br i1 %14, label %18, label %.tail.thread

.tail.thread:                                     ; preds = %8, %sub_1, %.tail
  call void @llvm.lifetime.start.p0(i64 2, ptr nonnull %7) #24
  %15 = call zeroext i1 @ws_strtou16(ptr noundef nonnull %1, ptr noundef null, ptr noundef nonnull %7)
  br i1 %15, label %.thread, label %16

.thread:                                          ; preds = %.tail.thread
  call void @llvm.lifetime.end.p0(i64 2, ptr nonnull %7) #24
  br label %18

16:                                               ; preds = %.tail.thread
  %17 = call noalias ptr @g_strdup(ptr noundef nonnull @.str.59)
  store ptr %17, ptr %5, align 8
  call void @llvm.lifetime.end.p0(i64 2, ptr nonnull %7) #24
  br label %19

18:                                               ; preds = %.thread, %.tail
  store ptr null, ptr %5, align 8
  br label %19

19:                                               ; preds = %16, %18, %9
  %.08 = phi i1 [ true, %9 ], [ false, %16 ], [ true, %18 ]
  ret i1 %.08
}